target datalayout = "e-m:e-p270:32:32-p271:32:32-p272:64:64-i64:64-i128:128-f80:128-n8:16:32:64-S128"
target triple = "x86_64-pc-linux-gnu"

%struct.Abc_Ntk_t_ = type { i32, i32, ptr, ptr, ptr, ptr, ptr, ptr, ptr, ptr, ptr, ptr, ptr, [11 x i32], i32, i32, i32, i32, ptr, i32, ptr, ptr, i32, i32, i32, double, i32, %struct.Vec_Int_t_, ptr, ptr, ptr, ptr, ptr, float, i32, ptr, ptr, ptr, ptr, ptr, ptr, ptr, ptr, ptr, ptr, ptr, ptr, ptr, ptr, ptr, ptr, ptr, ptr, ptr, ptr, ptr, ptr }
%struct.Vec_Int_t_ = type { i32, i32, ptr }
%struct.Abc_Obj_t_ = type { ptr, ptr, i32, i32, %struct.Vec_Int_t_, %struct.Vec_Int_t_, %union.anon, %union.anon.0 }
%union.anon = type { ptr }
%union.anon.0 = type { ptr }
%struct.Vec_Ptr_t_ = type { i32, i32, ptr }

@.str = private unnamed_addr constant [23 x i8] c"Subtracted %d fanouts\0A\00", align 1

; Function Attrs: inlinehint nounwind uwtable
define internal ptr @Vec_PtrEntry(ptr noundef %0, i32 noundef %1) #2 {
  %3 = alloca ptr, align 8
  %4 = alloca i32, align 4
  store ptr %0, ptr %3, align 8, !tbaa !32
  store i32 %1, ptr %4, align 4, !tbaa !8
  %5 = load ptr, ptr %3, align 8, !tbaa !32
  %6 = getelementptr inbounds nuw %struct.Vec_Ptr_t_, ptr %5, i32 0, i32 2
  %7 = load ptr, ptr %6, align 8, !tbaa !71
  %8 = load i32, ptr %4, align 4, !tbaa !8
  %9 = sext i32 %8 to i64
  %10 = getelementptr inbounds ptr, ptr %7, i64 %9
  %11 = load ptr, ptr %10, align 8, !tbaa !72
  ret ptr %11
}

; Function Attrs: inlinehint nounwind uwtable
define internal ptr @Abc_ObjRegular(ptr noundef %0) #2 {
  %2 = alloca ptr, align 8
  store ptr %0, ptr %2, align 8, !tbaa !26
  %3 = load ptr, ptr %2, align 8, !tbaa !26
  %4 = ptrtoint ptr %3 to i64
  %5 = and i64 %4, -2
  %6 = inttoptr i64 %5 to ptr
  ret ptr %6
}

; Function Attrs: inlinehint nounwind uwtable
define internal ptr @Abc_NtkObj(ptr noundef %0, i32 noundef %1) #2 {
  %3 = alloca ptr, align 8
  %4 = alloca i32, align 4
  store ptr %0, ptr %3, align 8, !tbaa !3
  store i32 %1, ptr %4, align 4, !tbaa !8
  %5 = load ptr, ptr %3, align 8, !tbaa !3
  %6 = getelementptr inbounds nuw %struct.Abc_Ntk_t_, ptr %5, i32 0, i32 5
  %7 = load ptr, ptr %6, align 8, !tbaa !10
  %8 = load i32, ptr %4, align 4, !tbaa !8
  %9 = call ptr @Vec_PtrEntry(ptr noundef %7, i32 noundef %8)
  ret ptr %9
}

; Function Attrs: inlinehint nounwind uwtable
define internal i32 @Vec_PtrSize(ptr noundef %0) #2 {
  %2 = alloca ptr, align 8
  store ptr %0, ptr %2, align 8, !tbaa !32
  %3 = load ptr, ptr %2, align 8, !tbaa !32
  %4 = getelementptr inbounds nuw %struct.Vec_Ptr_t_, ptr %3, i32 0, i32 1
  %5 = load i32, ptr %4, align 4, !tbaa !33
  ret i32 %5
}

; Function Attrs: nounwind uwtable
define void @Abc_NtkCutsSubtractFanunt(ptr noundef %0) #0 {
  %2 = alloca ptr, align 8
  %3 = alloca ptr, align 8
  %4 = alloca ptr, align 8
  %5 = alloca ptr, align 8
  %6 = alloca ptr, align 8
  %7 = alloca i32, align 4
  %8 = alloca i32, align 4
  store ptr %0, ptr %2, align 8, !tbaa !3
  call void @llvm.lifetime.start.p0(i64 8, ptr %3) #10
  call void @llvm.lifetime.start.p0(i64 8, ptr %4) #10
  call void @llvm.lifetime.start.p0(i64 8, ptr %5) #10
  call void @llvm.lifetime.start.p0(i64 8, ptr %6) #10
  call void @llvm.lifetime.start.p0(i64 4, ptr %7) #10
  call void @llvm.lifetime.start.p0(i64 4, ptr %8) #10
  store i32 0, ptr %8, align 4, !tbaa !8
  store i32 0, ptr %7, align 4, !tbaa !8
  br label %9

9:                                                ; preds = %58, %1
  %10 = load i32, ptr %7, align 4, !tbaa !8
  %11 = load ptr, ptr %2, align 8, !tbaa !3
  %12 = getelementptr inbounds nuw %struct.Abc_Ntk_t_, ptr %11, i32 0, i32 5
  %13 = load ptr, ptr %12, align 8, !tbaa !10
  %14 = call i32 @Vec_PtrSize(ptr noundef %13)
  %15 = icmp slt i32 %10, %14
  br i1 %15, label %16, label %20

16:                                               ; preds = %9
  %17 = load ptr, ptr %2, align 8, !tbaa !3
  %18 = load i32, ptr %7, align 4, !tbaa !8
  %19 = call ptr @Abc_NtkObj(ptr noundef %17, i32 noundef %18)
  store ptr %19, ptr %3, align 8, !tbaa !26
  br label %20

20:                                               ; preds = %16, %9
  %21 = phi i1 [ false, %9 ], [ true, %16 ]
  br i1 %21, label %22, label %61

22:                                               ; preds = %20
  %23 = load ptr, ptr %3, align 8, !tbaa !26
  %24 = icmp eq ptr %23, null
  br i1 %24, label %25, label %26

25:                                               ; preds = %22
  br label %57

26:                                               ; preds = %22
  %27 = load ptr, ptr %3, align 8, !tbaa !26
  %28 = call i32 @Abc_NodeIsMuxType(ptr noundef %27)
  %29 = icmp ne i32 %28, 0
  br i1 %29, label %31, label %30

30:                                               ; preds = %26
  br label %58

31:                                               ; preds = %26
  %32 = load ptr, ptr %3, align 8, !tbaa !26
  %33 = call ptr @Abc_NodeRecognizeMux(ptr noundef %32, ptr noundef %5, ptr noundef %4)
  store ptr %33, ptr %6, align 8, !tbaa !26
  %34 = load ptr, ptr %6, align 8, !tbaa !26
  %35 = call ptr @Abc_ObjRegular(ptr noundef %34)
  store ptr %35, ptr %6, align 8, !tbaa !26
  %36 = load ptr, ptr %4, align 8, !tbaa !26
  %37 = call ptr @Abc_ObjRegular(ptr noundef %36)
  store ptr %37, ptr %4, align 8, !tbaa !26
  %38 = load ptr, ptr %6, align 8, !tbaa !26
  %39 = getelementptr inbounds nuw %struct.Abc_Obj_t_, ptr %38, i32 0, i32 5
  %40 = getelementptr inbounds nuw %struct.Vec_Int_t_, ptr %39, i32 0, i32 1
  %41 = load i32, ptr %40, align 4, !tbaa !28
  %42 = add nsw i32 %41, -1
  store i32 %42, ptr %40, align 4, !tbaa !28
  %43 = load i32, ptr %8, align 4, !tbaa !8
  %44 = add nsw i32 %43, 1
  store i32 %44, ptr %8, align 4, !tbaa !8
  %45 = load ptr, ptr %3, align 8, !tbaa !26
  %46 = call i32 @Abc_NodeIsExorType(ptr noundef %45)
  %47 = icmp ne i32 %46, 0
  br i1 %47, label %48, label %56

48:                                               ; preds = %31
  %49 = load ptr, ptr %4, align 8, !tbaa !26
  %50 = getelementptr inbounds nuw %struct.Abc_Obj_t_, ptr %49, i32 0, i32 5
  %51 = getelementptr inbounds nuw %struct.Vec_Int_t_, ptr %50, i32 0, i32 1
  %52 = load i32, ptr %51, align 4, !tbaa !28
  %53 = add nsw i32 %52, -1
  store i32 %53, ptr %51, align 4, !tbaa !28
  %54 = load i32, ptr %8, align 4, !tbaa !8
  %55 = add nsw i32 %54, 1
  store i32 %55, ptr %8, align 4, !tbaa !8
  br label %56

56:                                               ; preds = %48, %31
  br label %57

57:                                               ; preds = %56, %25
  br label %58

58:                                               ; preds = %57, %30
  %59 = load i32, ptr %7, align 4, !tbaa !8
  %60 = add nsw i32 %59, 1
  store i32 %60, ptr %7, align 4, !tbaa !8
  br label %9, !llvm.loop !30

61:                                               ; preds = %20
  %62 = load i32, ptr %8, align 4, !tbaa !8
  %63 = call i32 (ptr, ...) @printf(ptr noundef @.str, i32 noundef %62)
  call void @llvm.lifetime.end.p0(i64 4, ptr %8) #10
  call void @llvm.lifetime.end.p0(i64 4, ptr %7) #10
  call void @llvm.lifetime.end.p0(i64 8, ptr %6) #10
  call void @llvm.lifetime.end.p0(i64 8, ptr %5) #10
  call void @llvm.lifetime.end.p0(i64 8, ptr %4) #10
  call void @llvm.lifetime.end.p0(i64 8, ptr %3) #10
  ret void
}